; Function Attrs: mustprogress uwtable
define internal void @_ZN5arrow4util12_GLOBAL__N_131ThrottledAsyncTaskSchedulerImpl5PauseEv(ptr nocapture noundef nonnull readonly align 8 dereferenceable(88) %this) unnamed_addr #0 align 2 {
entry:
  %throttle_ = getelementptr inbounds i8, ptr %this, i64 32
  %0 = load ptr, ptr %throttle_, align 8
  %vtable = load ptr, ptr %0, align 8
  %vfn = getelementptr inbounds i8, ptr %vtable, i64 40
  %1 = load ptr, ptr %vfn, align 8
  tail call void %1(ptr noundef nonnull align 8 dereferenceable(8) %0)
  ret void
}